target datalayout = "e-m:e-p270:32:32-p271:32:32-p272:64:64-i64:64-i128:128-f80:128-n8:16:32:64-S128"
target triple = "x86_64-pc-linux-gnu"

; Function Attrs: alwaysinline nounwind willreturn memory(none) uwtable
define internal i32 @av_clip_uintp2_c(i32 noundef %0, i32 noundef %1) #6 {
  %3 = alloca i32, align 4
  %4 = alloca i32, align 4
  %5 = alloca i32, align 4
  store i32 %0, ptr %4, align 4, !tbaa !9
  store i32 %1, ptr %5, align 4, !tbaa !9
  %6 = load i32, ptr %4, align 4, !tbaa !9
  %7 = load i32, ptr %5, align 4, !tbaa !9
  %8 = shl i32 1, %7
  %9 = sub i32 %8, 1
  %10 = xor i32 %9, -1
  %11 = and i32 %6, %10
  %12 = icmp ne i32 %11, 0
  br i1 %12, label %13, label %21

13:                                               ; preds = %2
  %14 = load i32, ptr %4, align 4, !tbaa !9
  %15 = xor i32 %14, -1
  %16 = ashr i32 %15, 31
  %17 = load i32, ptr %5, align 4, !tbaa !9
  %18 = shl i32 1, %17
  %19 = sub i32 %18, 1
  %20 = and i32 %16, %19
  store i32 %20, ptr %3, align 4
  br label %23

21:                                               ; preds = %2
  %22 = load i32, ptr %4, align 4, !tbaa !9
  store i32 %22, ptr %3, align 4
  br label %23

23:                                               ; preds = %21, %13
  %24 = load i32, ptr %3, align 4
  ret i32 %24
}

; Function Attrs: alwaysinline nounwind willreturn memory(none) uwtable
define internal i32 @av_clip_c(i32 noundef %0, i32 noundef %1, i32 noundef %2) #6 {
  %4 = alloca i32, align 4
  %5 = alloca i32, align 4
  %6 = alloca i32, align 4
  %7 = alloca i32, align 4
  store i32 %0, ptr %5, align 4, !tbaa !9
  store i32 %1, ptr %6, align 4, !tbaa !9
  store i32 %2, ptr %7, align 4, !tbaa !9
  %8 = load i32, ptr %5, align 4, !tbaa !9
  %9 = load i32, ptr %6, align 4, !tbaa !9
  %10 = icmp slt i32 %8, %9
  br i1 %10, label %11, label %13

11:                                               ; preds = %3
  %12 = load i32, ptr %6, align 4, !tbaa !9
  store i32 %12, ptr %4, align 4
  br label %21

13:                                               ; preds = %3
  %14 = load i32, ptr %5, align 4, !tbaa !9
  %15 = load i32, ptr %7, align 4, !tbaa !9
  %16 = icmp sgt i32 %14, %15
  br i1 %16, label %17, label %19

17:                                               ; preds = %13
  %18 = load i32, ptr %7, align 4, !tbaa !9
  store i32 %18, ptr %4, align 4
  br label %21

19:                                               ; preds = %13
  %20 = load i32, ptr %5, align 4, !tbaa !9
  store i32 %20, ptr %4, align 4
  br label %21

21:                                               ; preds = %19, %17, %11
  %22 = load i32, ptr %4, align 4
  ret i32 %22
}

; Function Attrs: alwaysinline nounwind uwtable
define internal void @h264_loop_filter_luma_9_c(ptr noundef %0, i64 noundef %1, i64 noundef %2, i32 noundef %3, i32 noundef %4, i32 noundef %5, ptr noundef %6) #7 {
  %8 = alloca ptr, align 8
  %9 = alloca i64, align 8
  %10 = alloca i64, align 8
  %11 = alloca i32, align 4
  %12 = alloca i32, align 4
  %13 = alloca i32, align 4
  %14 = alloca ptr, align 8
  %15 = alloca ptr, align 8
  %16 = alloca i32, align 4
  %17 = alloca i32, align 4
  %18 = alloca i32, align 4
  %19 = alloca i32, align 4
  %20 = alloca i32, align 4
  %21 = alloca i32, align 4
  %22 = alloca i32, align 4
  %23 = alloca i32, align 4
  %24 = alloca i32, align 4
  %25 = alloca i32, align 4
  %26 = alloca i32, align 4
  %27 = alloca i32, align 4
  store ptr %0, ptr %8, align 8, !tbaa !39
  store i64 %1, ptr %9, align 8, !tbaa !53
  store i64 %2, ptr %10, align 8, !tbaa !53
  store i32 %3, ptr %11, align 4, !tbaa !9
  store i32 %4, ptr %12, align 4, !tbaa !9
  store i32 %5, ptr %13, align 4, !tbaa !9
  store ptr %6, ptr %14, align 8, !tbaa !39
  call void @llvm.lifetime.start.p0(i64 8, ptr %15) #9
  %28 = load ptr, ptr %8, align 8, !tbaa !39
  store ptr %28, ptr %15, align 8, !tbaa !41
  call void @llvm.lifetime.start.p0(i64 4, ptr %16) #9
  call void @llvm.lifetime.start.p0(i64 4, ptr %17) #9
  %29 = load i64, ptr %9, align 8, !tbaa !53
  %30 = ashr i64 %29, 1
  store i64 %30, ptr %9, align 8, !tbaa !53
  %31 = load i64, ptr %10, align 8, !tbaa !53
  %32 = ashr i64 %31, 1
  store i64 %32, ptr %10, align 8, !tbaa !53
  %33 = load i32, ptr %12, align 4, !tbaa !9
  %34 = shl i32 %33, 1
  store i32 %34, ptr %12, align 4, !tbaa !9
  %35 = load i32, ptr %13, align 4, !tbaa !9
  %36 = shl i32 %35, 1
  store i32 %36, ptr %13, align 4, !tbaa !9
  store i32 0, ptr %16, align 4, !tbaa !9
  br label %37

37:                                               ; preds = %284, %7
  %38 = load i32, ptr %16, align 4, !tbaa !9
  %39 = icmp slt i32 %38, 4
  br i1 %39, label %40, label %287

40:                                               ; preds = %37
  call void @llvm.lifetime.start.p0(i64 4, ptr %18) #9
  %41 = load ptr, ptr %14, align 8, !tbaa !39
  %42 = load i32, ptr %16, align 4, !tbaa !9
  %43 = sext i32 %42 to i64
  %44 = getelementptr inbounds i8, ptr %41, i64 %43
  %45 = load i8, ptr %44, align 1, !tbaa !50
  %46 = sext i8 %45 to i32
  %47 = mul nsw i32 %46, 2
  store i32 %47, ptr %18, align 4, !tbaa !9
  %48 = load i32, ptr %18, align 4, !tbaa !9
  %49 = icmp slt i32 %48, 0
  br i1 %49, label %50, label %57

50:                                               ; preds = %40
  %51 = load i32, ptr %11, align 4, !tbaa !9
  %52 = sext i32 %51 to i64
  %53 = load i64, ptr %10, align 8, !tbaa !53
  %54 = mul nsw i64 %52, %53
  %55 = load ptr, ptr %15, align 8, !tbaa !41
  %56 = getelementptr inbounds i16, ptr %55, i64 %54
  store ptr %56, ptr %15, align 8, !tbaa !41
  store i32 4, ptr %19, align 4
  br label %281

57:                                               ; preds = %40
  store i32 0, ptr %17, align 4, !tbaa !9
  br label %58

58:                                               ; preds = %277, %57
  %59 = load i32, ptr %17, align 4, !tbaa !9
  %60 = load i32, ptr %11, align 4, !tbaa !9
  %61 = icmp slt i32 %59, %60
  br i1 %61, label %62, label %280

62:                                               ; preds = %58
  call void @llvm.lifetime.start.p0(i64 4, ptr %20) #9
  %63 = load ptr, ptr %15, align 8, !tbaa !41
  %64 = load i64, ptr %9, align 8, !tbaa !53
  %65 = mul nsw i64 -1, %64
  %66 = getelementptr inbounds i16, ptr %63, i64 %65
  %67 = load i16, ptr %66, align 2, !tbaa !45
  %68 = zext i16 %67 to i32
  store i32 %68, ptr %20, align 4, !tbaa !9
  call void @llvm.lifetime.start.p0(i64 4, ptr %21) #9
  %69 = load ptr, ptr %15, align 8, !tbaa !41
  %70 = load i64, ptr %9, align 8, !tbaa !53
  %71 = mul nsw i64 -2, %70
  %72 = getelementptr inbounds i16, ptr %69, i64 %71
  %73 = load i16, ptr %72, align 2, !tbaa !45
  %74 = zext i16 %73 to i32
  store i32 %74, ptr %21, align 4, !tbaa !9
  call void @llvm.lifetime.start.p0(i64 4, ptr %22) #9
  %75 = load ptr, ptr %15, align 8, !tbaa !41
  %76 = load i64, ptr %9, align 8, !tbaa !53
  %77 = mul nsw i64 -3, %76
  %78 = getelementptr inbounds i16, ptr %75, i64 %77
  %79 = load i16, ptr %78, align 2, !tbaa !45
  %80 = zext i16 %79 to i32
  store i32 %80, ptr %22, align 4, !tbaa !9
  call void @llvm.lifetime.start.p0(i64 4, ptr %23) #9
  %81 = load ptr, ptr %15, align 8, !tbaa !41
  %82 = getelementptr inbounds i16, ptr %81, i64 0
  %83 = load i16, ptr %82, align 2, !tbaa !45
  %84 = zext i16 %83 to i32
  store i32 %84, ptr %23, align 4, !tbaa !9
  call void @llvm.lifetime.start.p0(i64 4, ptr %24) #9
  %85 = load ptr, ptr %15, align 8, !tbaa !41
  %86 = load i64, ptr %9, align 8, !tbaa !53
  %87 = mul nsw i64 1, %86
  %88 = getelementptr inbounds i16, ptr %85, i64 %87
  %89 = load i16, ptr %88, align 2, !tbaa !45
  %90 = zext i16 %89 to i32
  store i32 %90, ptr %24, align 4, !tbaa !9
  call void @llvm.lifetime.start.p0(i64 4, ptr %25) #9
  %91 = load ptr, ptr %15, align 8, !tbaa !41
  %92 = load i64, ptr %9, align 8, !tbaa !53
  %93 = mul nsw i64 2, %92
  %94 = getelementptr inbounds i16, ptr %91, i64 %93
  %95 = load i16, ptr %94, align 2, !tbaa !45
  %96 = zext i16 %95 to i32
  store i32 %96, ptr %25, align 4, !tbaa !9
  %97 = load i32, ptr %20, align 4, !tbaa !9
  %98 = load i32, ptr %23, align 4, !tbaa !9
  %99 = sub nsw i32 %97, %98
  %100 = icmp sge i32 %99, 0
  br i1 %100, label %101, label %105

101:                                              ; preds = %62
  %102 = load i32, ptr %20, align 4, !tbaa !9
  %103 = load i32, ptr %23, align 4, !tbaa !9
  %104 = sub nsw i32 %102, %103
  br label %110

105:                                              ; preds = %62
  %106 = load i32, ptr %20, align 4, !tbaa !9
  %107 = load i32, ptr %23, align 4, !tbaa !9
  %108 = sub nsw i32 %106, %107
  %109 = sub nsw i32 0, %108
  br label %110

110:                                              ; preds = %105, %101
  %111 = phi i32 [ %104, %101 ], [ %109, %105 ]
  %112 = load i32, ptr %12, align 4, !tbaa !9
  %113 = icmp slt i32 %111, %112
  br i1 %113, label %114, label %273

114:                                              ; preds = %110
  %115 = load i32, ptr %21, align 4, !tbaa !9
  %116 = load i32, ptr %20, align 4, !tbaa !9
  %117 = sub nsw i32 %115, %116
  %118 = icmp sge i32 %117, 0
  br i1 %118, label %119, label %123

119:                                              ; preds = %114
  %120 = load i32, ptr %21, align 4, !tbaa !9
  %121 = load i32, ptr %20, align 4, !tbaa !9
  %122 = sub nsw i32 %120, %121
  br label %128

123:                                              ; preds = %114
  %124 = load i32, ptr %21, align 4, !tbaa !9
  %125 = load i32, ptr %20, align 4, !tbaa !9
  %126 = sub nsw i32 %124, %125
  %127 = sub nsw i32 0, %126
  br label %128

128:                                              ; preds = %123, %119
  %129 = phi i32 [ %122, %119 ], [ %127, %123 ]
  %130 = load i32, ptr %13, align 4, !tbaa !9
  %131 = icmp slt i32 %129, %130
  br i1 %131, label %132, label %273

132:                                              ; preds = %128
  %133 = load i32, ptr %24, align 4, !tbaa !9
  %134 = load i32, ptr %23, align 4, !tbaa !9
  %135 = sub nsw i32 %133, %134
  %136 = icmp sge i32 %135, 0
  br i1 %136, label %137, label %141

137:                                              ; preds = %132
  %138 = load i32, ptr %24, align 4, !tbaa !9
  %139 = load i32, ptr %23, align 4, !tbaa !9
  %140 = sub nsw i32 %138, %139
  br label %146

141:                                              ; preds = %132
  %142 = load i32, ptr %24, align 4, !tbaa !9
  %143 = load i32, ptr %23, align 4, !tbaa !9
  %144 = sub nsw i32 %142, %143
  %145 = sub nsw i32 0, %144
  br label %146

146:                                              ; preds = %141, %137
  %147 = phi i32 [ %140, %137 ], [ %145, %141 ]
  %148 = load i32, ptr %13, align 4, !tbaa !9
  %149 = icmp slt i32 %147, %148
  br i1 %149, label %150, label %273

150:                                              ; preds = %146
  call void @llvm.lifetime.start.p0(i64 4, ptr %26) #9
  %151 = load i32, ptr %18, align 4, !tbaa !9
  store i32 %151, ptr %26, align 4, !tbaa !9
  call void @llvm.lifetime.start.p0(i64 4, ptr %27) #9
  %152 = load i32, ptr %22, align 4, !tbaa !9
  %153 = load i32, ptr %20, align 4, !tbaa !9
  %154 = sub nsw i32 %152, %153
  %155 = icmp sge i32 %154, 0
  br i1 %155, label %156, label %160

156:                                              ; preds = %150
  %157 = load i32, ptr %22, align 4, !tbaa !9
  %158 = load i32, ptr %20, align 4, !tbaa !9
  %159 = sub nsw i32 %157, %158
  br label %165

160:                                              ; preds = %150
  %161 = load i32, ptr %22, align 4, !tbaa !9
  %162 = load i32, ptr %20, align 4, !tbaa !9
  %163 = sub nsw i32 %161, %162
  %164 = sub nsw i32 0, %163
  br label %165

165:                                              ; preds = %160, %156
  %166 = phi i32 [ %159, %156 ], [ %164, %160 ]
  %167 = load i32, ptr %13, align 4, !tbaa !9
  %168 = icmp slt i32 %166, %167
  br i1 %168, label %169, label %197

169:                                              ; preds = %165
  %170 = load i32, ptr %18, align 4, !tbaa !9
  %171 = icmp ne i32 %170, 0
  br i1 %171, label %172, label %194

172:                                              ; preds = %169
  %173 = load i32, ptr %21, align 4, !tbaa !9
  %174 = load i32, ptr %22, align 4, !tbaa !9
  %175 = load i32, ptr %20, align 4, !tbaa !9
  %176 = load i32, ptr %23, align 4, !tbaa !9
  %177 = add nsw i32 %175, %176
  %178 = add nsw i32 %177, 1
  %179 = ashr i32 %178, 1
  %180 = add nsw i32 %174, %179
  %181 = ashr i32 %180, 1
  %182 = load i32, ptr %21, align 4, !tbaa !9
  %183 = sub nsw i32 %181, %182
  %184 = load i32, ptr %18, align 4, !tbaa !9
  %185 = sub nsw i32 0, %184
  %186 = load i32, ptr %18, align 4, !tbaa !9
  %187 = call i32 @av_clip_c(i32 noundef %183, i32 noundef %185, i32 noundef %186) #10
  %188 = add nsw i32 %173, %187
  %189 = trunc i32 %188 to i16
  %190 = load ptr, ptr %15, align 8, !tbaa !41
  %191 = load i64, ptr %9, align 8, !tbaa !53
  %192 = mul nsw i64 -2, %191
  %193 = getelementptr inbounds i16, ptr %190, i64 %192
  store i16 %189, ptr %193, align 2, !tbaa !45
  br label %194

194:                                              ; preds = %172, %169
  %195 = load i32, ptr %26, align 4, !tbaa !9
  %196 = add nsw i32 %195, 1
  store i32 %196, ptr %26, align 4, !tbaa !9
  br label %197

197:                                              ; preds = %194, %165
  %198 = load i32, ptr %25, align 4, !tbaa !9
  %199 = load i32, ptr %23, align 4, !tbaa !9
  %200 = sub nsw i32 %198, %199
  %201 = icmp sge i32 %200, 0
  br i1 %201, label %202, label %206

202:                                              ; preds = %197
  %203 = load i32, ptr %25, align 4, !tbaa !9
  %204 = load i32, ptr %23, align 4, !tbaa !9
  %205 = sub nsw i32 %203, %204
  br label %211

206:                                              ; preds = %197
  %207 = load i32, ptr %25, align 4, !tbaa !9
  %208 = load i32, ptr %23, align 4, !tbaa !9
  %209 = sub nsw i32 %207, %208
  %210 = sub nsw i32 0, %209
  br label %211

211:                                              ; preds = %206, %202
  %212 = phi i32 [ %205, %202 ], [ %210, %206 ]
  %213 = load i32, ptr %13, align 4, !tbaa !9
  %214 = icmp slt i32 %212, %213
  br i1 %214, label %215, label %242

215:                                              ; preds = %211
  %216 = load i32, ptr %18, align 4, !tbaa !9
  %217 = icmp ne i32 %216, 0
  br i1 %217, label %218, label %239

218:                                              ; preds = %215
  %219 = load i32, ptr %24, align 4, !tbaa !9
  %220 = load i32, ptr %25, align 4, !tbaa !9
  %221 = load i32, ptr %20, align 4, !tbaa !9
  %222 = load i32, ptr %23, align 4, !tbaa !9
  %223 = add nsw i32 %221, %222
  %224 = add nsw i32 %223, 1
  %225 = ashr i32 %224, 1
  %226 = add nsw i32 %220, %225
  %227 = ashr i32 %226, 1
  %228 = load i32, ptr %24, align 4, !tbaa !9
  %229 = sub nsw i32 %227, %228
  %230 = load i32, ptr %18, align 4, !tbaa !9
  %231 = sub nsw i32 0, %230
  %232 = load i32, ptr %18, align 4, !tbaa !9
  %233 = call i32 @av_clip_c(i32 noundef %229, i32 noundef %231, i32 noundef %232) #10
  %234 = add nsw i32 %219, %233
  %235 = trunc i32 %234 to i16
  %236 = load ptr, ptr %15, align 8, !tbaa !41
  %237 = load i64, ptr %9, align 8, !tbaa !53
  %238 = getelementptr inbounds i16, ptr %236, i64 %237
  store i16 %235, ptr %238, align 2, !tbaa !45
  br label %239

239:                                              ; preds = %218, %215
  %240 = load i32, ptr %26, align 4, !tbaa !9
  %241 = add nsw i32 %240, 1
  store i32 %241, ptr %26, align 4, !tbaa !9
  br label %242

242:                                              ; preds = %239, %211
  %243 = load i32, ptr %23, align 4, !tbaa !9
  %244 = load i32, ptr %20, align 4, !tbaa !9
  %245 = sub nsw i32 %243, %244
  %246 = mul nsw i32 %245, 4
  %247 = load i32, ptr %21, align 4, !tbaa !9
  %248 = load i32, ptr %24, align 4, !tbaa !9
  %249 = sub nsw i32 %247, %248
  %250 = add nsw i32 %246, %249
  %251 = add nsw i32 %250, 4
  %252 = ashr i32 %251, 3
  %253 = load i32, ptr %26, align 4, !tbaa !9
  %254 = sub nsw i32 0, %253
  %255 = load i32, ptr %26, align 4, !tbaa !9
  %256 = call i32 @av_clip_c(i32 noundef %252, i32 noundef %254, i32 noundef %255) #10
  store i32 %256, ptr %27, align 4, !tbaa !9
  %257 = load i32, ptr %20, align 4, !tbaa !9
  %258 = load i32, ptr %27, align 4, !tbaa !9
  %259 = add nsw i32 %257, %258
  %260 = call i32 @av_clip_uintp2_c(i32 noundef %259, i32 noundef 9) #10
  %261 = trunc i32 %260 to i16
  %262 = load ptr, ptr %15, align 8, !tbaa !41
  %263 = load i64, ptr %9, align 8, !tbaa !53
  %264 = sub nsw i64 0, %263
  %265 = getelementptr inbounds i16, ptr %262, i64 %264
  store i16 %261, ptr %265, align 2, !tbaa !45
  %266 = load i32, ptr %23, align 4, !tbaa !9
  %267 = load i32, ptr %27, align 4, !tbaa !9
  %268 = sub nsw i32 %266, %267
  %269 = call i32 @av_clip_uintp2_c(i32 noundef %268, i32 noundef 9) #10
  %270 = trunc i32 %269 to i16
  %271 = load ptr, ptr %15, align 8, !tbaa !41
  %272 = getelementptr inbounds i16, ptr %271, i64 0
  store i16 %270, ptr %272, align 2, !tbaa !45
  call void @llvm.lifetime.end.p0(i64 4, ptr %27) #9
  call void @llvm.lifetime.end.p0(i64 4, ptr %26) #9
  br label %273

273:                                              ; preds = %242, %146, %128, %110
  %274 = load i64, ptr %10, align 8, !tbaa !53
  %275 = load ptr, ptr %15, align 8, !tbaa !41
  %276 = getelementptr inbounds i16, ptr %275, i64 %274
  store ptr %276, ptr %15, align 8, !tbaa !41
  call void @llvm.lifetime.end.p0(i64 4, ptr %25) #9
  call void @llvm.lifetime.end.p0(i64 4, ptr %24) #9
  call void @llvm.lifetime.end.p0(i64 4, ptr %23) #9
  call void @llvm.lifetime.end.p0(i64 4, ptr %22) #9
  call void @llvm.lifetime.end.p0(i64 4, ptr %21) #9
  call void @llvm.lifetime.end.p0(i64 4, ptr %20) #9
  br label %277

277:                                              ; preds = %273
  %278 = load i32, ptr %17, align 4, !tbaa !9
  %279 = add nsw i32 %278, 1
  store i32 %279, ptr %17, align 4, !tbaa !9
  br label %58, !llvm.loop !95

280:                                              ; preds = %58
  store i32 0, ptr %19, align 4
  br label %281

281:                                              ; preds = %280, %50
  call void @llvm.lifetime.end.p0(i64 4, ptr %18) #9
  %282 = load i32, ptr %19, align 4
  switch i32 %282, label %288 [
    i32 0, label %283
    i32 4, label %284
  ]

283:                                              ; preds = %281
  br label %284

284:                                              ; preds = %283, %281
  %285 = load i32, ptr %16, align 4, !tbaa !9
  %286 = add nsw i32 %285, 1
  store i32 %286, ptr %16, align 4, !tbaa !9
  br label %37, !llvm.loop !96

287:                                              ; preds = %37
  call void @llvm.lifetime.end.p0(i64 4, ptr %17) #9
  call void @llvm.lifetime.end.p0(i64 4, ptr %16) #9
  call void @llvm.lifetime.end.p0(i64 8, ptr %15) #9
  ret void

288:                                              ; preds = %281
  unreachable
}

; Function Attrs: nounwind uwtable
define internal void @h264_h_loop_filter_luma_9_c(ptr noundef %0, i64 noundef %1, i32 noundef %2, i32 noundef %3, ptr noundef %4) #1 {
  %6 = alloca ptr, align 8
  %7 = alloca i64, align 8
  %8 = alloca i32, align 4
  %9 = alloca i32, align 4
  %10 = alloca ptr, align 8
  store ptr %0, ptr %6, align 8, !tbaa !39
  store i64 %1, ptr %7, align 8, !tbaa !53
  store i32 %2, ptr %8, align 4, !tbaa !9
  store i32 %3, ptr %9, align 4, !tbaa !9
  store ptr %4, ptr %10, align 8, !tbaa !39
  %11 = load ptr, ptr %6, align 8, !tbaa !39
  %12 = load i64, ptr %7, align 8, !tbaa !53
  %13 = load i32, ptr %8, align 4, !tbaa !9
  %14 = load i32, ptr %9, align 4, !tbaa !9
  %15 = load ptr, ptr %10, align 8, !tbaa !39
  call void @h264_loop_filter_luma_9_c(ptr noundef %11, i64 noundef 2, i64 noundef %12, i32 noundef 4, i32 noundef %13, i32 noundef %14, ptr noundef %15)
  ret void
}